target datalayout = "e-m:e-p270:32:32-p271:32:32-p272:64:64-i64:64-i128:128-f80:128-n8:16:32:64-S128"
target triple = "x86_64-pc-linux-gnu"

%class.CodeBuffer = type { ptr, %class.CodeSection, %class.CodeSection, %class.CodeSection, ptr, ptr, ptr, i32, ptr, %class.OopRecorder, ptr, ptr, ptr, ptr, ptr, i8, i32 }
%class.CodeSection = type { ptr, ptr, ptr, ptr, ptr, ptr, ptr, ptr, i8, i8, i32, i8, ptr }
%class.OopRecorder = type { %class.ValueRecorder, %class.ValueRecorder.0, ptr }
%class.ValueRecorder = type <{ ptr, ptr, ptr, ptr, i8, [7 x i8] }>
%class.ValueRecorder.0 = type <{ ptr, ptr, ptr, ptr, i8, [7 x i8] }>

@g_assert_poison = external global ptr, align 8
@.str = private unnamed_addr constant [37 x i8] c"src/hotspot/share/asm/codeBuffer.cpp\00", align 1
@CodeEntryAlignment = external global i64, align 8

; Function Attrs: mustprogress nounwind uwtable
define linkonce_odr hidden noundef i32 @_Z10align_downIiiTnNSt9enable_ifIXcvbsr3std11is_integralIT_EE5valueEiE4typeELi0EES1_S1_T0_(i32 noundef %0, i32 noundef %1) #1 comdat {
  %3 = alloca i32, align 4
  %4 = alloca i32, align 4
  %5 = alloca i32, align 4
  store i32 %0, ptr %3, align 4
  store i32 %1, ptr %4, align 4
  %6 = load i32, ptr %3, align 4
  %7 = load i32, ptr %4, align 4
  %8 = call noundef i32 @_ZL14alignment_maskIiTnNSt9enable_ifIXcvbsr3std11is_integralIT_EE5valueEiE4typeELi0EES1_S1_(i32 noundef %7)
  %9 = xor i32 %8, -1
  %10 = and i32 %6, %9
  store i32 %10, ptr %5, align 4
  %11 = load i32, ptr %5, align 4
  ret i32 %11
}

; Function Attrs: mustprogress nounwind uwtable
define linkonce_odr hidden noundef i32 @_Z12checked_castIiiET_T0_(i32 noundef %0) #1 comdat {
  %2 = alloca i32, align 4
  %3 = alloca i32, align 4
  store i32 %0, ptr %2, align 4
  %4 = load i32, ptr %2, align 4
  store i32 %4, ptr %3, align 4
  %5 = load i32, ptr %3, align 4
  ret i32 %5
}

; Function Attrs: mustprogress nounwind uwtable
define internal noundef i32 @_ZL14alignment_maskIiTnNSt9enable_ifIXcvbsr3std11is_integralIT_EE5valueEiE4typeELi0EES1_S1_(i32 noundef %0) #1 {
  %2 = alloca i32, align 4
  store i32 %0, ptr %2, align 4
  %3 = load i32, ptr %2, align 4
  %4 = sub nsw i32 %3, 1
  ret i32 %4
}

; Function Attrs: mustprogress nounwind uwtable
define linkonce_odr hidden noundef i32 @_Z8align_upIiiTnNSt9enable_ifIXcvbsr3std11is_integralIT_EE5valueEiE4typeELi0EES1_S1_T0_(i32 noundef %0, i32 noundef %1) #1 comdat {
  %3 = alloca i32, align 4
  %4 = alloca i32, align 4
  %5 = alloca i32, align 4
  store i32 %0, ptr %3, align 4
  store i32 %1, ptr %4, align 4
  %6 = load i32, ptr %3, align 4
  %7 = load i32, ptr %4, align 4
  %8 = call noundef i32 @_ZL14alignment_maskIiTnNSt9enable_ifIXcvbsr3std11is_integralIT_EE5valueEiE4typeELi0EES1_S1_(i32 noundef %7)
  %9 = add nsw i32 %6, %8
  %10 = call noundef i32 @_Z12checked_castIiiET_T0_(i32 noundef %9)
  store i32 %10, ptr %5, align 4
  %11 = load i32, ptr %5, align 4
  %12 = load i32, ptr %4, align 4
  %13 = call noundef i32 @_Z10align_downIiiTnNSt9enable_ifIXcvbsr3std11is_integralIT_EE5valueEiE4typeELi0EES1_S1_T0_(i32 noundef %11, i32 noundef %12)
  ret i32 %13
}

; Function Attrs: mustprogress nounwind uwtable
define hidden noundef i32 @_ZNK11CodeSection9alignmentEv(ptr noundef nonnull align 8 dereferenceable(88) %0) #1 align 2 {
  %2 = alloca i32, align 4
  %3 = alloca ptr, align 8
  store ptr %0, ptr %3, align 8
  %4 = load ptr, ptr %3, align 8
  %5 = getelementptr inbounds %class.CodeSection, ptr %4, i32 0, i32 11
  %6 = load i8, ptr %5, align 8
  %7 = sext i8 %6 to i32
  %8 = icmp eq i32 %7, 0
  br i1 %8, label %9, label %14

9:                                                ; preds = %1
  %10 = getelementptr inbounds %class.CodeSection, ptr %4, i32 0, i32 12
  %11 = load ptr, ptr %10, align 8
  %12 = getelementptr inbounds %class.CodeBuffer, ptr %11, i32 0, i32 16
  %13 = load i32, ptr %12, align 4
  store i32 %13, ptr %2, align 4
  br label %32

14:                                               ; preds = %1
  %15 = getelementptr inbounds %class.CodeSection, ptr %4, i32 0, i32 11
  %16 = load i8, ptr %15, align 8
  %17 = sext i8 %16 to i32
  %18 = icmp eq i32 %17, 1
  br i1 %18, label %19, label %22

19:                                               ; preds = %14
  %20 = load i64, ptr @CodeEntryAlignment, align 8
  %21 = trunc i64 %20 to i32
  store i32 %21, ptr %2, align 4
  br label %32

22:                                               ; preds = %14
  %23 = getelementptr inbounds %class.CodeSection, ptr %4, i32 0, i32 11
  %24 = load i8, ptr %23, align 8
  %25 = sext i8 %24 to i32
  %26 = icmp eq i32 %25, 2
  br i1 %26, label %27, label %28

27:                                               ; preds = %22
  store i32 8, ptr %2, align 4
  br label %32

28:                                               ; preds = %22
  br label %29

29:                                               ; preds = %28
  %30 = load ptr, ptr @g_assert_poison, align 8
  store i8 88, ptr %30, align 1
  call void @_Z28report_should_not_reach_herePKci(ptr noundef @.str, i32 noundef 441) #9
  unreachable

31:                                               ; No predecessors!
  store i32 0, ptr %2, align 4
  br label %32

32:                                               ; preds = %31, %27, %19, %9
  %33 = load i32, ptr %2, align 4
  ret i32 %33
}

; Function Attrs: mustprogress nounwind uwtable
define linkonce_odr hidden noundef ptr @_ZN10CodeBuffer12code_sectionEi(ptr noundef nonnull align 8 dereferenceable(448) %0, i32 noundef %1) #1 comdat align 2 {
  %3 = alloca ptr, align 8
  %4 = alloca i32, align 4
  %5 = alloca ptr, align 8
  store ptr %0, ptr %3, align 8
  store i32 %1, ptr %4, align 4
  %6 = load ptr, ptr %3, align 8
  %7 = getelementptr inbounds %class.CodeBuffer, ptr %6, i32 0, i32 1
  %8 = load i32, ptr %4, align 4
  %9 = sext i32 %8 to i64
  %10 = getelementptr inbounds %class.CodeSection, ptr %7, i64 %9
  store ptr %10, ptr %5, align 8
  %11 = load ptr, ptr %5, align 8
  ret ptr %11
}

; Function Attrs: mustprogress nounwind uwtable
define linkonce_odr hidden noundef i32 @_ZNK11CodeSection4sizeEv(ptr noundef nonnull align 8 dereferenceable(88) %0) #1 comdat align 2 {
  %2 = alloca ptr, align 8
  store ptr %0, ptr %2, align 8
  %3 = load ptr, ptr %2, align 8
  %4 = getelementptr inbounds %class.CodeSection, ptr %3, i32 0, i32 2
  %5 = load ptr, ptr %4, align 8
  %6 = getelementptr inbounds %class.CodeSection, ptr %3, i32 0, i32 0
  %7 = load ptr, ptr %6, align 8
  %8 = ptrtoint ptr %5 to i64
  %9 = ptrtoint ptr %7 to i64
  %10 = sub i64 %8, %9
  %11 = trunc i64 %10 to i32
  ret i32 %11
}

; Function Attrs: mustprogress nounwind uwtable
define linkonce_odr hidden noundef i32 @_ZNK11CodeSection14align_at_startEi(ptr noundef nonnull align 8 dereferenceable(88) %0, i32 noundef %1) #1 comdat align 2 {
  %3 = alloca ptr, align 8
  %4 = alloca i32, align 4
  store ptr %0, ptr %3, align 8
  store i32 %1, ptr %4, align 4
  %5 = load ptr, ptr %3, align 8
  %6 = load i32, ptr %4, align 4
  %7 = call noundef i32 @_ZNK11CodeSection9alignmentEv(ptr noundef nonnull align 8 dereferenceable(88) %5)
  %8 = call noundef i32 @_Z8align_upIiiTnNSt9enable_ifIXcvbsr3std11is_integralIT_EE5valueEiE4typeELi0EES1_S1_T0_(i32 noundef %6, i32 noundef %7)
  ret i32 %8
}

; Function Attrs: mustprogress nounwind uwtable
define linkonce_odr hidden noundef zeroext i1 @_ZNK11CodeSection8is_emptyEv(ptr noundef nonnull align 8 dereferenceable(88) %0) #1 comdat align 2 {
  %2 = alloca ptr, align 8
  store ptr %0, ptr %2, align 8
  %3 = load ptr, ptr %2, align 8
  %4 = getelementptr inbounds %class.CodeSection, ptr %3, i32 0, i32 0
  %5 = load ptr, ptr %4, align 8
  %6 = getelementptr inbounds %class.CodeSection, ptr %3, i32 0, i32 2
  %7 = load ptr, ptr %6, align 8
  %8 = icmp eq ptr %5, %7
  ret i1 %8
}

; Function Attrs: mustprogress nounwind uwtable
define linkonce_odr hidden noundef ptr @_ZNK10CodeBuffer12code_sectionEi(ptr noundef nonnull align 8 dereferenceable(448) %0, i32 noundef %1) #1 comdat align 2 {
  %3 = alloca ptr, align 8
  %4 = alloca i32, align 4
  store ptr %0, ptr %3, align 8
  store i32 %1, ptr %4, align 4
  %5 = load ptr, ptr %3, align 8
  %6 = load i32, ptr %4, align 4
  %7 = call noundef ptr @_ZN10CodeBuffer12code_sectionEi(ptr noundef nonnull align 8 dereferenceable(448) %5, i32 noundef %6)
  ret ptr %7
}

; Function Attrs: mustprogress nounwind uwtable
define hidden noundef i32 @_ZNK10CodeBuffer18total_content_sizeEv(ptr noundef nonnull align 8 dereferenceable(448) %0) #1 align 2 {
  %2 = alloca ptr, align 8
  %3 = alloca i32, align 4
  %4 = alloca i32, align 4
  %5 = alloca ptr, align 8
  store ptr %0, ptr %2, align 8
  %6 = load ptr, ptr %2, align 8
  store i32 0, ptr %3, align 4
  store i32 0, ptr %4, align 4
  br label %7

7:                                                ; preds = %24, %1
  %8 = load i32, ptr %4, align 4
  %9 = icmp slt i32 %8, 3
  br i1 %9, label %10, label %27

10:                                               ; preds = %7
  %11 = load i32, ptr %4, align 4
  %12 = call noundef ptr @_ZNK10CodeBuffer12code_sectionEi(ptr noundef nonnull align 8 dereferenceable(448) %6, i32 noundef %11)
  store ptr %12, ptr %5, align 8
  %13 = load ptr, ptr %5, align 8
  %14 = call noundef zeroext i1 @_ZNK11CodeSection8is_emptyEv(ptr noundef nonnull align 8 dereferenceable(88) %13)
  br i1 %14, label %15, label %16

15:                                               ; preds = %10
  br label %24

16:                                               ; preds = %10
  %17 = load ptr, ptr %5, align 8
  %18 = load i32, ptr %3, align 4
  %19 = call noundef i32 @_ZNK11CodeSection14align_at_startEi(ptr noundef nonnull align 8 dereferenceable(88) %17, i32 noundef %18)
  store i32 %19, ptr %3, align 4
  %20 = load ptr, ptr %5, align 8
  %21 = call noundef i32 @_ZNK11CodeSection4sizeEv(ptr noundef nonnull align 8 dereferenceable(88) %20)
  %22 = load i32, ptr %3, align 4
  %23 = add nsw i32 %22, %21
  store i32 %23, ptr %3, align 4
  br label %24

24:                                               ; preds = %16, %15
  %25 = load i32, ptr %4, align 4
  %26 = add nsw i32 %25, 1
  store i32 %26, ptr %4, align 4
  br label %7, !llvm.loop !14

27:                                               ; preds = %7
  %28 = load i32, ptr %3, align 4
  ret i32 %28
}