; Function Attrs: mustprogress nounwind uwtable
define hidden noundef i32 @_ZNK10CodeBuffer18total_content_sizeEv(ptr nocapture noundef nonnull readonly align 8 dereferenceable(448) %0) local_unnamed_addr #0 align 2 {
  %2 = getelementptr inbounds i8, ptr %0, i64 8
  %3 = load i64, ptr @CodeEntryAlignment, align 8
  %4 = trunc i64 %3 to i32
  br label %5

5:                                                ; preds = %1, %31
  %indvars.iv = phi i64 [ 0, %1 ], [ %indvars.iv.next, %31 ]
  %.012 = phi i32 [ 0, %1 ], [ %.1, %31 ]
  %6 = getelementptr inbounds %class.CodeSection, ptr %2, i64 %indvars.iv
  %7 = load ptr, ptr %6, align 8
  %8 = getelementptr inbounds i8, ptr %6, i64 16
  %9 = load ptr, ptr %8, align 8
  %10 = icmp eq ptr %7, %9
  br i1 %10, label %31, label %11

11:                                               ; preds = %5
  %12 = getelementptr inbounds i8, ptr %6, i64 72
  %13 = load i8, ptr %12, align 8
  switch i8 %13, label %20 [
    i8 0, label %14
    i8 1, label %19
    i8 2, label %_ZNK11CodeSection14align_at_startEi.exit
  ]

14:                                               ; preds = %11
  %15 = getelementptr inbounds i8, ptr %6, i64 80
  %16 = load ptr, ptr %15, align 8
  %17 = getelementptr inbounds i8, ptr %16, i64 444
  %18 = load i32, ptr %17, align 4
  br label %_ZNK11CodeSection14align_at_startEi.exit

19:                                               ; preds = %11
  br label %_ZNK11CodeSection14align_at_startEi.exit

20:                                               ; preds = %11
  %21 = load ptr, ptr @g_assert_poison, align 8
  store i8 88, ptr %21, align 1
  tail call void @_Z28report_should_not_reach_herePKci(ptr noundef nonnull @.str, i32 noundef 441) #17
  unreachable

_ZNK11CodeSection14align_at_startEi.exit:         ; preds = %11, %14, %19
  %.0.i.i = phi i32 [ %18, %14 ], [ %4, %19 ], [ 8, %11 ]
  %22 = add i32 %.012, -1
  %23 = add i32 %22, %.0.i.i
  %24 = sub i32 0, %.0.i.i
  %25 = and i32 %23, %24
  %26 = ptrtoint ptr %9 to i64
  %27 = ptrtoint ptr %7 to i64
  %28 = sub i64 %26, %27
  %29 = trunc i64 %28 to i32
  %30 = add nsw i32 %25, %29
  br label %31

31:                                               ; preds = %5, %_ZNK11CodeSection14align_at_startEi.exit
  %.1 = phi i32 [ %.012, %5 ], [ %30, %_ZNK11CodeSection14align_at_startEi.exit ]
  %indvars.iv.next = add nuw nsw i64 %indvars.iv, 1
  %exitcond.not = icmp eq i64 %indvars.iv.next, 3
  br i1 %exitcond.not, label %32, label %5, !llvm.loop !27

32:                                               ; preds = %31
  ret i32 %.1
}